TN:
SF:/root/Nikita/projectbox/src/project/main.cpp
FN:2,main
FNDA:0,main
FNF:1
FNH:0
DA:2,0
DA:3,0
LF:2
LH:0
end_of_record
TN:
SF:/root/Nikita/projectbox/src/project/task_3/Source.h
FN:9,_Z7messageINSt7__cxx1118basic_stringstreamIcSt11char_traitsIcESaIcEEEEvRT_PKc
FN:15,_Z7messageINSt7__cxx1118basic_stringstreamIcSt11char_traitsIcESaIcEEEdEvRT_PKcT0_
FN:15,_Z7messageINSt7__cxx1118basic_stringstreamIcSt11char_traitsIcESaIcEEEiEvRT_PKcT0_
FN:30,_Z7messageINSt7__cxx1118basic_stringstreamIcSt11char_traitsIcESaIcEEEcJidccdEEvRT_PKcT0_DpT1_
FN:30,_Z7messageINSt7__cxx1118basic_stringstreamIcSt11char_traitsIcESaIcEEEiJiiEEvRT_PKcT0_DpT1_
FN:30,_Z7messageINSt7__cxx1118basic_stringstreamIcSt11char_traitsIcESaIcEEEPKcJiiEEvRT_S7_T0_DpT1_
FN:30,_Z7messageINSt7__cxx1118basic_stringstreamIcSt11char_traitsIcESaIcEEEiJiiiEEvRT_PKcT0_DpT1_
FN:30,_Z7messageINSt7__cxx1118basic_stringstreamIcSt11char_traitsIcESaIcEEEcJcdEEvRT_PKcT0_DpT1_
FN:30,_Z7messageINSt7__cxx1118basic_stringstreamIcSt11char_traitsIcESaIcEEEcJdEEvRT_PKcT0_DpT1_
FN:30,_Z7messageINSt7__cxx1118basic_stringstreamIcSt11char_traitsIcESaIcEEEiJdccdEEvRT_PKcT0_DpT1_
FN:30,_Z7messageINSt7__cxx1118basic_stringstreamIcSt11char_traitsIcESaIcEEEiJPKciEEvRT_S7_T0_DpT1_
FN:30,_Z7messageINSt7__cxx1118basic_stringstreamIcSt11char_traitsIcESaIcEEEiJiiiiiiiiiiEEvRT_PKcT0_DpT1_
FN:30,_Z7messageINSt7__cxx1118basic_stringstreamIcSt11char_traitsIcESaIcEEEiJiiiiiEEvRT_PKcT0_DpT1_
FN:30,_Z7messageINSt7__cxx1118basic_stringstreamIcSt11char_traitsIcESaIcEEEiJiiiiiiiEEvRT_PKcT0_DpT1_
FN:30,_Z7messageINSt7__cxx1118basic_stringstreamIcSt11char_traitsIcESaIcEEEdJiPKciEEvRT_S7_T0_DpT1_
FN:30,_Z7messageINSt7__cxx1118basic_stringstreamIcSt11char_traitsIcESaIcEEEiJiiiiiiEEvRT_PKcT0_DpT1_
FN:30,_Z7messageINSt7__cxx1118basic_stringstreamIcSt11char_traitsIcESaIcEEEiJiiiiEEvRT_PKcT0_DpT1_
FN:30,_Z7messageINSt7__cxx1118basic_stringstreamIcSt11char_traitsIcESaIcEEEiJiiiiiiiiiEEvRT_PKcT0_DpT1_
FN:30,_Z7messageINSt7__cxx1118basic_stringstreamIcSt11char_traitsIcESaIcEEEPKcJiEEvRT_S7_T0_DpT1_
FN:30,_Z7messageINSt7__cxx1118basic_stringstreamIcSt11char_traitsIcESaIcEEEiJiiiiiiiiiiiEEvRT_PKcT0_DpT1_
FN:30,_Z7messageINSt7__cxx1118basic_stringstreamIcSt11char_traitsIcESaIcEEEiJdiPKciEEvRT_S7_T0_DpT1_
FN:30,_Z7messageINSt7__cxx1118basic_stringstreamIcSt11char_traitsIcESaIcEEEiJiEEvRT_PKcT0_DpT1_
FN:30,_Z7messageINSt7__cxx1118basic_stringstreamIcSt11char_traitsIcESaIcEEEcJidiPKciEEvRT_S7_T0_DpT1_
FN:30,_Z7messageINSt7__cxx1118basic_stringstreamIcSt11char_traitsIcESaIcEEEdJccdEEvRT_PKcT0_DpT1_
FN:30,_Z7messageINSt7__cxx1118basic_stringstreamIcSt11char_traitsIcESaIcEEEiJiiiiiiiiEEvRT_PKcT0_DpT1_
FN:44,_Z3catIiLm1EESt5arrayIT_XmlLi2ET0_EES0_IS1_XT0_EES3_
FN:44,_Z3catIiLm2EESt5arrayIT_XmlLi2ET0_EES0_IS1_XT0_EES3_
FN:44,_Z3catIiLm3EESt5arrayIT_XmlLi2ET0_EES0_IS1_XT0_EES3_
FN:54,_Z3catIiLm2EJSt5arrayIiLm2EES1_EES0_IT_XmlT0_plsZT1_Li1EEES0_IS2_XT0_EEDpT1_
FN:54,_Z3catIiLm1EJSt5arrayIiLm1EES1_S1_S1_S1_EES0_IT_XmlT0_plsZT1_Li1EEES0_IS2_XT0_EEDpT1_
FN:54,_Z3catIiLm1EJSt5arrayIiLm1EES1_S1_EES0_IT_XmlT0_plsZT1_Li1EEES0_IS2_XT0_EEDpT1_
FN:54,_Z3catIiLm1EJSt5arrayIiLm1EES1_EES0_IT_XmlT0_plsZT1_Li1EEES0_IS2_XT0_EEDpT1_
FN:54,_Z3catIiLm1EJSt5arrayIiLm1EES1_S1_S1_EES0_IT_XmlT0_plsZT1_Li1EEES0_IS2_XT0_EEDpT1_
FN:65,_ZN3TieIiLm3ELm2EED2Ev
FN:65,_ZN3TieIiLm3ELm4EED2Ev
FN:68,_ZN3TieIiLm3ELm2EEaSERKSt5arrayIiLm6EE
FN:74,_ZN3TieIiLm3ELm2EE5recurERSt5arrayIiLm3EE
FN:74,_ZN3TieIiLm3ELm4EE5recurERSt5arrayIiLm3EE
FN:79,_ZN3TieIiLm3ELm2EE5recurIJSt5arrayIiLm3EEEEEvRS3_DpRT_
FN:79,_ZN3TieIiLm3ELm4EE5recurIJSt5arrayIiLm3EES3_EEEvRS3_DpRT_
FN:79,_ZN3TieIiLm3ELm4EE5recurIJSt5arrayIiLm3EEEEEvRS3_DpRT_
FN:79,_ZN3TieIiLm3ELm4EE5recurIJSt5arrayIiLm3EES3_S3_EEEvRS3_DpRT_
FN:90,_ZN3TieIiLm3ELm2EEC2IJSt5arrayIiLm3EEEEERS3_DpRT_
FN:90,_ZN3TieIiLm3ELm4EEC2IJSt5arrayIiLm3EES3_S3_EEERS3_DpRT_
FN:97,_Z5uncatIiLm3EJSt5arrayIiLm3EEEE3TieIT_XT0_EXplsZT1_Li1EEERS0_IS3_XT0_EEDpRT1_
FN:97,_Z5uncatIiLm3EJSt5arrayIiLm3EES1_S1_EE3TieIT_XT0_EXplsZT1_Li1EEERS0_IS3_XT0_EEDpRT1_
FNDA:1,_ZN3TieIiLm3ELm4EE5recurIJSt5arrayIiLm3EES3_EEEvRS3_DpRT_
FNDA:1,_Z7messageINSt7__cxx1118basic_stringstreamIcSt11char_traitsIcESaIcEEEcJidccdEEvRT_PKcT0_DpT1_
FNDA:1,_Z7messageINSt7__cxx1118basic_stringstreamIcSt11char_traitsIcESaIcEEEiJiiEEvRT_PKcT0_DpT1_
FNDA:1,_Z3catIiLm2EJSt5arrayIiLm2EES1_EES0_IT_XmlT0_plsZT1_Li1EEES0_IS2_XT0_EEDpT1_
FNDA:2,_ZN3TieIiLm3ELm2EE5recurIJSt5arrayIiLm3EEEEEvRS3_DpRT_
FNDA:1,_Z3catIiLm1EESt5arrayIT_XmlLi2ET0_EES0_IS1_XT0_EES3_
FNDA:1,_Z7messageINSt7__cxx1118basic_stringstreamIcSt11char_traitsIcESaIcEEEcJdEEvRT_PKcT0_DpT1_
FNDA:2,_ZN3TieIiLm3ELm2EEC2IJSt5arrayIiLm3EEEEERS3_DpRT_
FNDA:2,_ZN3TieIiLm3ELm2EE5recurERSt5arrayIiLm3EE
FNDA:1,_Z7messageINSt7__cxx1118basic_stringstreamIcSt11char_traitsIcESaIcEEEPKcJiiEEvRT_S7_T0_DpT1_
FNDA:1,_Z7messageINSt7__cxx1118basic_stringstreamIcSt11char_traitsIcESaIcEEEiJiiiEEvRT_PKcT0_DpT1_
FNDA:1,_Z7messageINSt7__cxx1118basic_stringstreamIcSt11char_traitsIcESaIcEEEcJcdEEvRT_PKcT0_DpT1_
FNDA:1,_Z7messageINSt7__cxx1118basic_stringstreamIcSt11char_traitsIcESaIcEEEiJiiiiiiiEEvRT_PKcT0_DpT1_
FNDA:1,_Z7messageINSt7__cxx1118basic_stringstreamIcSt11char_traitsIcESaIcEEEdJiPKciEEvRT_S7_T0_DpT1_
FNDA:1,_Z7messageINSt7__cxx1118basic_stringstreamIcSt11char_traitsIcESaIcEEEdEvRT_PKcT0_
FNDA:2,_ZN3TieIiLm3ELm2EED2Ev
FNDA:1,_Z7messageINSt7__cxx1118basic_stringstreamIcSt11char_traitsIcESaIcEEEiJiiiiiiEEvRT_PKcT0_DpT1_
FNDA:1,_Z7messageINSt7__cxx1118basic_stringstreamIcSt11char_traitsIcESaIcEEEiJiiiiEEvRT_PKcT0_DpT1_
FNDA:1,_Z7messageINSt7__cxx1118basic_stringstreamIcSt11char_traitsIcESaIcEEEiJiiiiiiiiiEEvRT_PKcT0_DpT1_
FNDA:0,_Z7messageINSt7__cxx1118basic_stringstreamIcSt11char_traitsIcESaIcEEEPKcJiEEvRT_S7_T0_DpT1_
FNDA:1,_Z3catIiLm1EJSt5arrayIiLm1EES1_S1_EES0_IT_XmlT0_plsZT1_Li1EEES0_IS2_XT0_EEDpT1_
FNDA:1,_Z7messageINSt7__cxx1118basic_stringstreamIcSt11char_traitsIcESaIcEEEiJPKciEEvRT_S7_T0_DpT1_
FNDA:2,_Z5uncatIiLm3EJSt5arrayIiLm3EEEE3TieIT_XT0_EXplsZT1_Li1EEERS0_IS3_XT0_EEDpRT1_
FNDA:1,_Z7messageINSt7__cxx1118basic_stringstreamIcSt11char_traitsIcESaIcEEEiJdccdEEvRT_PKcT0_DpT1_
FNDA:1,_Z7messageINSt7__cxx1118basic_stringstreamIcSt11char_traitsIcESaIcEEEiJiiiiiiiiiiEEvRT_PKcT0_DpT1_
FNDA:1,_Z3catIiLm1EJSt5arrayIiLm1EES1_S1_S1_S1_EES0_IT_XmlT0_plsZT1_Li1EEES0_IS2_XT0_EEDpT1_
FNDA:1,_Z7messageINSt7__cxx1118basic_stringstreamIcSt11char_traitsIcESaIcEEEiJiiiiiEEvRT_PKcT0_DpT1_
FNDA:1,_Z3catIiLm2EESt5arrayIT_XmlLi2ET0_EES0_IS1_XT0_EES3_
FNDA:1,_ZN3TieIiLm3ELm4EE5recurIJSt5arrayIiLm3EEEEEvRS3_DpRT_
FNDA:1,_ZN3TieIiLm3ELm4EE5recurIJSt5arrayIiLm3EES3_S3_EEEvRS3_DpRT_
FNDA:1,_Z5uncatIiLm3EJSt5arrayIiLm3EES1_S1_EE3TieIT_XT0_EXplsZT1_Li1EEERS0_IS3_XT0_EEDpRT1_
FNDA:1,_Z7messageINSt7__cxx1118basic_stringstreamIcSt11char_traitsIcESaIcEEEdJccdEEvRT_PKcT0_DpT1_
FNDA:1,_Z7messageINSt7__cxx1118basic_stringstreamIcSt11char_traitsIcESaIcEEEiJiiiiiiiiEEvRT_PKcT0_DpT1_
FNDA:2,_Z7messageINSt7__cxx1118basic_stringstreamIcSt11char_traitsIcESaIcEEEEvRT_PKc
FNDA:1,_ZN3TieIiLm3ELm4EEC2IJSt5arrayIiLm3EES3_S3_EEERS3_DpRT_
FNDA:2,_Z7messageINSt7__cxx1118basic_stringstreamIcSt11char_traitsIcESaIcEEEiEvRT_PKcT0_
FNDA:1,_ZN3TieIiLm3ELm4EED2Ev
FNDA:1,_Z3catIiLm3EESt5arrayIT_XmlLi2ET0_EES0_IS1_XT0_EES3_
FNDA:1,_ZN3TieIiLm3ELm2EEaSERKSt5arrayIiLm6EE
FNDA:1,_Z7messageINSt7__cxx1118basic_stringstreamIcSt11char_traitsIcESaIcEEEiJiiiiiiiiiiiEEvRT_PKcT0_DpT1_
FNDA:1,_Z7messageINSt7__cxx1118basic_stringstreamIcSt11char_traitsIcESaIcEEEiJdiPKciEEvRT_S7_T0_DpT1_
FNDA:1,_ZN3TieIiLm3ELm4EE5recurERSt5arrayIiLm3EE
FNDA:1,_Z3catIiLm1EJSt5arrayIiLm1EES1_EES0_IT_XmlT0_plsZT1_Li1EEES0_IS2_XT0_EEDpT1_
FNDA:1,_Z3catIiLm1EJSt5arrayIiLm1EES1_S1_S1_EES0_IT_XmlT0_plsZT1_Li1EEES0_IS2_XT0_EEDpT1_
FNDA:3,_Z7messageINSt7__cxx1118basic_stringstreamIcSt11char_traitsIcESaIcEEEiJiEEvRT_PKcT0_DpT1_
FNDA:1,_Z7messageINSt7__cxx1118basic_stringstreamIcSt11char_traitsIcESaIcEEEcJidiPKciEEvRT_S7_T0_DpT1_
FNF:46
FNH:45
BRDA:17,1,0,2
BRDA:17,1,1,0
BRDA:17,3,2,5
BRDA:17,3,3,0
BRDA:18,0,0,1
BRDA:18,0,1,1
BRDA:18,1,2,3
BRDA:18,1,3,2
BRDA:23,4294967295,0,0
BRDA:23,4294967295,1,1
BRDA:23,4294967295,2,1
BRDA:23,4294967295,3,1
BRDA:32,1,0,2
BRDA:32,1,1,0
BRDA:32,3,2,2
BRDA:32,3,3,0
BRDA:32,5,4,2
BRDA:32,5,5,0
BRDA:32,7,6,2
BRDA:32,7,7,0
BRDA:32,9,8,2
BRDA:32,9,9,0
BRDA:32,11,10,2
BRDA:32,11,11,0
BRDA:32,13,12,-
BRDA:32,13,13,-
BRDA:32,15,14,2
BRDA:32,15,15,0
BRDA:32,17,16,2
BRDA:32,17,17,0
BRDA:32,19,18,0
BRDA:32,19,19,1
BRDA:32,21,20,2
BRDA:32,21,21,0
BRDA:32,23,22,2
BRDA:32,23,23,0
BRDA:32,25,24,4
BRDA:32,25,25,0
BRDA:32,27,26,4
BRDA:32,27,27,0
BRDA:32,29,28,2
BRDA:32,29,29,0
BRDA:32,31,30,4
BRDA:32,31,31,0
BRDA:32,33,32,4
BRDA:32,33,33,0
BRDA:32,35,34,9
BRDA:32,35,35,2
BRDA:32,37,36,1
BRDA:32,37,37,0
BRDA:32,39,38,1
BRDA:32,39,39,0
BRDA:32,41,40,1
BRDA:32,41,41,0
BRDA:32,43,42,1
BRDA:32,43,43,0
BRDA:33,0,0,1
BRDA:33,0,1,1
BRDA:33,1,2,1
BRDA:33,1,3,1
BRDA:33,2,4,1
BRDA:33,2,5,1
BRDA:33,3,6,1
BRDA:33,3,7,1
BRDA:33,4,8,1
BRDA:33,4,9,1
BRDA:33,5,10,1
BRDA:33,5,11,1
BRDA:33,6,12,-
BRDA:33,6,13,-
BRDA:33,7,14,1
BRDA:33,7,15,1
BRDA:33,8,16,1
BRDA:33,8,17,1
BRDA:33,9,18,-
BRDA:33,9,19,-
BRDA:33,10,20,1
BRDA:33,10,21,1
BRDA:33,11,22,1
BRDA:33,11,23,1
BRDA:33,12,24,3
BRDA:33,12,25,1
BRDA:33,13,26,3
BRDA:33,13,27,1
BRDA:33,14,28,1
BRDA:33,14,29,1
BRDA:33,15,30,3
BRDA:33,15,31,1
BRDA:33,16,32,3
BRDA:33,16,33,1
BRDA:33,17,34,8
BRDA:33,17,35,1
BRDA:33,18,36,0
BRDA:33,18,37,1
BRDA:33,19,38,0
BRDA:33,19,39,1
BRDA:33,20,40,0
BRDA:33,20,41,1
BRDA:33,21,42,0
BRDA:33,21,43,1
BRDA:46,1,0,1
BRDA:46,1,1,1
BRDA:46,3,2,2
BRDA:46,3,3,1
BRDA:46,5,4,3
BRDA:46,5,5,1
BRDA:48,1,0,1
BRDA:48,1,1,1
BRDA:48,3,2,2
BRDA:48,3,3,1
BRDA:48,5,4,3
BRDA:48,5,5,1
BRDA:55,1,2,1
BRDA:55,1,3,0
BRDA:55,2,5,1
BRDA:55,2,6,0
BRDA:55,3,8,1
BRDA:55,3,9,0
BRDA:57,0,0,1
BRDA:57,0,1,1
BRDA:57,2,2,1
BRDA:57,2,3,1
BRDA:57,4,4,1
BRDA:57,4,5,1
BRDA:57,6,6,1
BRDA:57,6,7,1
BRDA:57,7,8,2
BRDA:57,7,9,1
BRDA:59,1,0,2
BRDA:59,1,1,1
BRDA:59,3,2,3
BRDA:59,3,3,1
BRDA:59,5,4,4
BRDA:59,5,5,1
BRDA:59,7,6,5
BRDA:59,7,7,1
BRDA:59,9,8,4
BRDA:59,9,9,1
BRDA:69,1,0,2
BRDA:69,1,1,1
BRDA:70,1,0,6
BRDA:70,1,1,2
BRDA:75,0,2,1
BRDA:75,0,3,0
BRDA:75,1,6,2
BRDA:75,1,7,0
BRDA:80,0,2,1
BRDA:80,0,3,0
BRDA:80,1,6,1
BRDA:80,1,7,0
BRDA:80,2,10,1
BRDA:80,2,11,0
BRDA:80,3,14,2
BRDA:80,3,15,0
BRDA:92,4294967295,1,1
BRDA:92,4294967295,2,0
BRDA:92,4294967295,4,2
BRDA:92,4294967295,5,0
BRF:158
BRH:114
DA:9,2
DA:11,2
DA:12,2
DA:15,3
DA:16,3
DA:17,7
DA:18,7
DA:19,4
DA:22,3
DA:23,3
DA:24,1
DA:25,3
DA:27,3
DA:30,23
DA:31,23
DA:32,54
DA:33,51
DA:34,31
DA:36,20
DA:37,20
DA:38,20
DA:41,23
DA:44,3
DA:46,9
DA:47,6
DA:48,9
DA:49,6
DA:50,3
DA:54,5
DA:55,5
DA:57,11
DA:58,6
DA:59,23
DA:60,18
DA:61,5
DA:65,6
DA:68,1
DA:69,3
DA:70,8
DA:71,6
DA:72,1
DA:74,3
DA:75,3
DA:76,3
DA:79,5
DA:80,5
DA:81,5
DA:82,5
DA:90,3
DA:91,3
DA:92,3
DA:93,3
DA:97,3
DA:98,3
LF:54
LH:54
end_of_record
TN:
SF:/root/Nikita/projectbox/src/test/task_3/Source_test.cpp
FN:9,_Z6resultNSt7__cxx1112basic_stringIcSt11char_traitsIcESaIcEEE
FN:17,_Z6resultIJiiiiiiiiiiiiEENSt7__cxx1112basic_stringIcSt11char_traitsIcESaIcEEES5_DpT_
FN:17,_Z6resultIJcidiPKciEENSt7__cxx1112basic_stringIcSt11char_traitsIcESaIcEEES7_DpT_
FN:17,_Z6resultIJiEENSt7__cxx1112basic_stringIcSt11char_traitsIcESaIcEEES5_DpT_
FN:17,_Z6resultIJiiEENSt7__cxx1112basic_stringIcSt11char_traitsIcESaIcEEES5_DpT_
FN:17,_Z6resultIJPKciiEENSt7__cxx1112basic_stringIcSt11char_traitsIcESaIcEEES7_DpT_
FN:17,_Z6resultIJcidccdEENSt7__cxx1112basic_stringIcSt11char_traitsIcESaIcEEES5_DpT_
FN:24,_ZN25variadic_correctness_TestD0Ev
FN:24,_ZN25variadic_correctness_TestC2Ev
FN:24,_ZN25variadic_correctness_TestD2Ev
FN:24,_ZN25variadic_correctness_Test8TestBodyEv
FN:62,_GLOBAL__sub_I__Z6resultNSt7__cxx1112basic_stringIcSt11char_traitsIcESaIcEEE
FN:62,_Z41__static_initialization_and_destruction_0ii
FNDA:1,_GLOBAL__sub_I__Z6resultNSt7__cxx1112basic_stringIcSt11char_traitsIcESaIcEEE
FNDA:1,_Z6resultIJcidiPKciEENSt7__cxx1112basic_stringIcSt11char_traitsIcESaIcEEES7_DpT_
FNDA:1,_ZN25variadic_correctness_TestD0Ev
FNDA:1,_Z6resultIJiEENSt7__cxx1112basic_stringIcSt11char_traitsIcESaIcEEES5_DpT_
FNDA:1,_ZN25variadic_correctness_TestC2Ev
FNDA:1,_ZN25variadic_correctness_TestD2Ev
FNDA:1,_Z6resultIJiiEENSt7__cxx1112basic_stringIcSt11char_traitsIcESaIcEEES5_DpT_
FNDA:1,_Z6resultIJiiiiiiiiiiiiEENSt7__cxx1112basic_stringIcSt11char_traitsIcESaIcEEES5_DpT_
FNDA:1,_ZN25variadic_correctness_Test8TestBodyEv
FNDA:1,_Z6resultIJPKciiEENSt7__cxx1112basic_stringIcSt11char_traitsIcESaIcEEES7_DpT_
FNDA:1,_Z6resultIJcidccdEENSt7__cxx1112basic_stringIcSt11char_traitsIcESaIcEEES5_DpT_
FNDA:1,_Z41__static_initialization_and_destruction_0ii
FNDA:2,_Z6resultNSt7__cxx1112basic_stringIcSt11char_traitsIcESaIcEEE
FNF:13
FNH:13
BRDA:11,0,2,2
BRDA:11,0,3,0
BRDA:12,0,2,2
BRDA:12,0,3,0
BRDA:13,0,1,2
BRDA:13,0,2,0
BRDA:19,0,2,1
BRDA:19,0,3,0
BRDA:19,3,8,1
BRDA:19,3,9,0
BRDA:19,6,14,1
BRDA:19,6,15,0
BRDA:19,9,20,1
BRDA:19,9,21,0
BRDA:19,12,26,1
BRDA:19,12,27,0
BRDA:19,15,32,1
BRDA:19,15,33,0
BRDA:20,0,2,1
BRDA:20,0,3,0
BRDA:20,1,6,1
BRDA:20,1,7,0
BRDA:20,2,10,1
BRDA:20,2,11,0
BRDA:20,3,14,1
BRDA:20,3,15,0
BRDA:20,4,18,1
BRDA:20,4,19,0
BRDA:20,5,22,1
BRDA:20,5,23,0
BRDA:21,0,1,1
BRDA:21,0,2,0
BRDA:21,3,4,1
BRDA:21,3,5,0
BRDA:21,6,7,1
BRDA:21,6,8,0
BRDA:21,9,10,1
BRDA:21,9,11,0
BRDA:21,12,13,1
BRDA:21,12,14,0
BRDA:21,15,16,1
BRDA:21,15,17,0
BRDA:24,4294967295,5,1
BRDA:24,4294967295,6,0
BRDA:24,0,8,1
BRDA:24,0,9,0
BRDA:24,1,11,1
BRDA:24,1,12,0
BRDA:26,0,2,1
BRDA:26,0,3,0
BRDA:26,1,5,1
BRDA:26,1,6,0
BRDA:26,2,8,1
BRDA:26,2,9,0
BRDA:26,3,14,0
BRDA:26,3,15,1
BRDA:26,4,17,-
BRDA:26,4,18,-
BRDA:26,5,20,-
BRDA:26,5,21,-
BRDA:26,6,23,-
BRDA:26,6,24,-
BRDA:26,7,26,-
BRDA:26,7,27,-
BRDA:27,4294967295,2,1
BRDA:27,4294967295,3,0
BRDA:27,0,5,1
BRDA:27,0,6,0
BRDA:27,1,8,1
BRDA:27,1,9,0
BRDA:27,2,14,0
BRDA:27,2,15,1
BRDA:27,3,17,-
BRDA:27,3,18,-
BRDA:27,4,20,-
BRDA:27,4,21,-
BRDA:27,5,23,-
BRDA:27,5,24,-
BRDA:27,6,26,-
BRDA:27,6,27,-
BRDA:28,4294967295,2,1
BRDA:28,4294967295,3,0
BRDA:28,0,5,1
BRDA:28,0,6,0
BRDA:28,1,8,1
BRDA:28,1,9,0
BRDA:28,2,14,0
BRDA:28,2,15,1
BRDA:28,3,17,-
BRDA:28,3,18,-
BRDA:28,4,20,-
BRDA:28,4,21,-
BRDA:28,5,23,-
BRDA:28,5,24,-
BRDA:28,6,26,-
BRDA:28,6,27,-
BRDA:29,4294967295,2,1
BRDA:29,4294967295,3,0
BRDA:29,0,5,1
BRDA:29,0,6,0
BRDA:29,1,8,1
BRDA:29,1,9,0
BRDA:29,2,14,0
BRDA:29,2,15,1
BRDA:29,3,17,-
BRDA:29,3,18,-
BRDA:29,4,20,-
BRDA:29,4,21,-
BRDA:29,5,23,-
BRDA:29,5,24,-
BRDA:29,6,26,-
BRDA:29,6,27,-
BRDA:30,4294967295,2,1
BRDA:30,4294967295,3,0
BRDA:30,0,5,1
BRDA:30,0,6,0
BRDA:30,1,8,1
BRDA:30,1,9,0
BRDA:30,2,14,0
BRDA:30,2,15,1
BRDA:30,3,17,-
BRDA:30,3,18,-
BRDA:30,4,20,-
BRDA:30,4,21,-
BRDA:30,5,23,-
BRDA:30,5,24,-
BRDA:30,6,26,-
BRDA:30,6,27,-
BRDA:31,4294967295,2,1
BRDA:31,4294967295,3,0
BRDA:31,0,5,1
BRDA:31,0,6,0
BRDA:31,1,8,1
BRDA:31,1,9,0
BRDA:31,2,14,0
BRDA:31,2,15,1
BRDA:31,3,17,-
BRDA:31,3,18,-
BRDA:31,4,20,-
BRDA:31,4,21,-
BRDA:31,5,23,-
BRDA:31,5,24,-
BRDA:31,6,26,-
BRDA:31,6,27,-
BRDA:32,4294967295,2,1
BRDA:32,4294967295,3,0
BRDA:32,0,5,1
BRDA:32,0,6,0
BRDA:32,1,8,1
BRDA:32,1,9,0
BRDA:32,2,14,0
BRDA:32,2,15,1
BRDA:32,3,17,-
BRDA:32,3,18,-
BRDA:32,4,20,-
BRDA:32,4,21,-
BRDA:32,5,23,-
BRDA:32,5,24,-
BRDA:32,6,26,-
BRDA:32,6,27,-
BRDA:33,4294967295,2,1
BRDA:33,4294967295,3,0
BRDA:33,0,5,1
BRDA:33,0,6,0
BRDA:33,1,8,1
BRDA:33,1,9,0
BRDA:33,2,14,0
BRDA:33,2,15,1
BRDA:33,3,17,-
BRDA:33,3,18,-
BRDA:33,4,20,-
BRDA:33,4,21,-
BRDA:33,5,23,-
BRDA:33,5,24,-
BRDA:33,6,26,-
BRDA:33,6,27,-
BRDA:37,4294967295,2,1
BRDA:37,4294967295,3,0
BRDA:37,0,5,0
BRDA:37,0,6,1
BRDA:37,1,8,-
BRDA:37,1,9,-
BRDA:37,2,11,-
BRDA:37,2,12,-
BRDA:37,3,14,-
BRDA:37,3,15,-
BRDA:37,4,17,-
BRDA:37,4,18,-
BRDA:41,4294967295,1,1
BRDA:41,4294967295,2,0
BRDA:41,0,4,1
BRDA:41,0,5,0
BRDA:41,1,7,0
BRDA:41,1,8,1
BRDA:41,2,10,-
BRDA:41,2,11,-
BRDA:41,3,13,-
BRDA:41,3,14,-
BRDA:41,4,16,-
BRDA:41,4,17,-
BRDA:41,5,19,-
BRDA:41,5,20,-
BRDA:50,4294967295,1,1
BRDA:50,4294967295,2,0
BRDA:50,0,4,1
BRDA:50,0,5,0
BRDA:50,1,7,0
BRDA:50,1,8,1
BRDA:50,2,10,-
BRDA:50,2,11,-
BRDA:50,3,13,-
BRDA:50,3,14,-
BRDA:50,4,16,-
BRDA:50,4,17,-
BRDA:50,5,19,-
BRDA:50,5,20,-
BRDA:55,4294967295,1,1
BRDA:55,4294967295,2,0
BRDA:56,4294967295,1,1
BRDA:56,4294967295,2,0
BRDA:56,0,3,1
BRDA:56,0,4,0
BRDA:56,1,6,1
BRDA:56,1,7,0
BRDA:56,2,8,1
BRDA:56,2,9,0
BRDA:56,5,11,1
BRDA:56,5,12,0
BRDA:56,6,14,0
BRDA:56,6,15,1
BRDA:56,7,17,-
BRDA:56,7,18,-
BRDA:56,8,20,-
BRDA:56,8,21,-
BRDA:56,9,24,-
BRDA:56,9,25,-
BRDA:56,10,27,-
BRDA:56,10,28,-
BRDA:59,4294967295,1,1
BRDA:59,4294967295,2,0
BRDA:59,0,3,1
BRDA:59,0,4,0
BRDA:59,1,6,1
BRDA:59,1,7,0
BRDA:59,2,8,1
BRDA:59,2,9,0
BRDA:59,3,11,1
BRDA:59,3,12,0
BRDA:59,5,15,-
BRDA:59,5,16,-
BRDA:59,6,18,-
BRDA:59,6,19,-
BRDA:59,7,21,-
BRDA:59,7,22,-
BRDA:59,8,27,-
BRDA:59,8,28,-
BRDA:61,0,1,1
BRDA:61,0,2,0
BRDA:61,1,3,1
BRDA:61,1,4,0
BRDA:61,2,6,1
BRDA:61,2,7,0
BRDA:61,3,8,1
BRDA:61,3,9,0
BRDA:61,4,11,1
BRDA:61,4,12,0
BRDA:61,6,15,-
BRDA:61,6,16,-
BRDA:61,7,18,-
BRDA:61,7,19,-
BRDA:61,8,21,-
BRDA:61,8,22,-
BRDA:61,9,27,-
BRDA:61,9,28,-
BRDA:62,3,1,1
BRDA:62,3,2,0
BRDA:62,4,3,1
BRDA:62,4,4,0
BRF:278
BRH:83
DA:9,2
DA:11,4
DA:12,2
DA:13,4
DA:17,6
DA:19,12
DA:20,6
DA:21,12
DA:24,8
DA:26,1
DA:27,1
DA:28,1
DA:29,1
DA:30,1
DA:31,1
DA:32,1
DA:33,1
DA:35,1
DA:36,1
DA:37,1
DA:39,1
DA:40,1
DA:41,1
DA:43,1
DA:44,1
DA:45,1
DA:46,1
DA:47,1
DA:48,1
DA:49,1
DA:50,1
DA:52,1
DA:53,1
DA:54,1
DA:55,1
DA:56,1
DA:59,1
DA:61,1
DA:62,5
LF:39
LH:39
end_of_record
